target datalayout = "e-m:e-p270:32:32-p271:32:32-p272:64:64-i64:64-i128:128-f80:128-n8:16:32:64-S128"
target triple = "x86_64-pc-linux-gnu"

%struct.Vec_Ptr_t_ = type { i32, i32, ptr }

@Llb_ManGetDummyName.Buffer = internal global [2000 x i8] zeroinitializer, align 16
@.str = private unnamed_addr constant [7 x i8] c"%s%0*d\00", align 1
@.str.1 = private unnamed_addr constant [3 x i8] c"ff\00", align 1
@.str.2 = private unnamed_addr constant [8 x i8] c"Reached\00", align 1
@.str.3 = private unnamed_addr constant [3 x i8] c"wb\00", align 1

; Function Attrs: inlinehint nounwind uwtable
define internal void @Vec_PtrGrow(ptr noundef %0, i32 noundef %1) #4 {
  %3 = alloca ptr, align 8
  %4 = alloca i32, align 4
  store ptr %0, ptr %3, align 8, !tbaa !14
  store i32 %1, ptr %4, align 4, !tbaa !8
  %5 = load ptr, ptr %3, align 8, !tbaa !14
  %6 = getelementptr inbounds nuw %struct.Vec_Ptr_t_, ptr %5, i32 0, i32 0
  %7 = load i32, ptr %6, align 8, !tbaa !25
  %8 = load i32, ptr %4, align 4, !tbaa !8
  %9 = icmp sge i32 %7, %8
  br i1 %9, label %10, label %11

10:                                               ; preds = %2
  br label %36

11:                                               ; preds = %2
  %12 = load ptr, ptr %3, align 8, !tbaa !14
  %13 = getelementptr inbounds nuw %struct.Vec_Ptr_t_, ptr %12, i32 0, i32 2
  %14 = load ptr, ptr %13, align 8, !tbaa !26
  %15 = icmp ne ptr %14, null
  br i1 %15, label %16, label %24

16:                                               ; preds = %11
  %17 = load ptr, ptr %3, align 8, !tbaa !14
  %18 = getelementptr inbounds nuw %struct.Vec_Ptr_t_, ptr %17, i32 0, i32 2
  %19 = load ptr, ptr %18, align 8, !tbaa !26
  %20 = load i32, ptr %4, align 4, !tbaa !8
  %21 = sext i32 %20 to i64
  %22 = mul i64 8, %21
  %23 = call ptr @realloc(ptr noundef %19, i64 noundef %22) #9
  br label %29

24:                                               ; preds = %11
  %25 = load i32, ptr %4, align 4, !tbaa !8
  %26 = sext i32 %25 to i64
  %27 = mul i64 8, %26
  %28 = call noalias ptr @malloc(i64 noundef %27) #8
  br label %29

29:                                               ; preds = %24, %16
  %30 = phi ptr [ %23, %16 ], [ %28, %24 ]
  %31 = load ptr, ptr %3, align 8, !tbaa !14
  %32 = getelementptr inbounds nuw %struct.Vec_Ptr_t_, ptr %31, i32 0, i32 2
  store ptr %30, ptr %32, align 8, !tbaa !26
  %33 = load i32, ptr %4, align 4, !tbaa !8
  %34 = load ptr, ptr %3, align 8, !tbaa !14
  %35 = getelementptr inbounds nuw %struct.Vec_Ptr_t_, ptr %34, i32 0, i32 0
  store i32 %33, ptr %35, align 8, !tbaa !25
  br label %36

36:                                               ; preds = %29, %10
  ret void
}

; Function Attrs: inlinehint nounwind uwtable
define internal void @Vec_PtrFree(ptr noundef %0) #4 {
  %2 = alloca ptr, align 8
  store ptr %0, ptr %2, align 8, !tbaa !14
  %3 = load ptr, ptr %2, align 8, !tbaa !14
  %4 = getelementptr inbounds nuw %struct.Vec_Ptr_t_, ptr %3, i32 0, i32 2
  %5 = load ptr, ptr %4, align 8, !tbaa !26
  %6 = icmp ne ptr %5, null
  br i1 %6, label %7, label %13

7:                                                ; preds = %1
  %8 = load ptr, ptr %2, align 8, !tbaa !14
  %9 = getelementptr inbounds nuw %struct.Vec_Ptr_t_, ptr %8, i32 0, i32 2
  %10 = load ptr, ptr %9, align 8, !tbaa !26
  call void @free(ptr noundef %10) #7
  %11 = load ptr, ptr %2, align 8, !tbaa !14
  %12 = getelementptr inbounds nuw %struct.Vec_Ptr_t_, ptr %11, i32 0, i32 2
  store ptr null, ptr %12, align 8, !tbaa !26
  br label %14

13:                                               ; preds = %1
  br label %14

14:                                               ; preds = %13, %7
  %15 = load ptr, ptr %2, align 8, !tbaa !14
  %16 = icmp ne ptr %15, null
  br i1 %16, label %17, label %19

17:                                               ; preds = %14
  %18 = load ptr, ptr %2, align 8, !tbaa !14
  call void @free(ptr noundef %18) #7
  store ptr null, ptr %2, align 8, !tbaa !14
  br label %20

19:                                               ; preds = %14
  br label %20

20:                                               ; preds = %19, %17
  ret void
}

; Function Attrs: inlinehint nounwind uwtable
define internal ptr @Vec_PtrEntry(ptr noundef %0, i32 noundef %1) #4 {
  %3 = alloca ptr, align 8
  %4 = alloca i32, align 4
  store ptr %0, ptr %3, align 8, !tbaa !14
  store i32 %1, ptr %4, align 4, !tbaa !8
  %5 = load ptr, ptr %3, align 8, !tbaa !14
  %6 = getelementptr inbounds nuw %struct.Vec_Ptr_t_, ptr %5, i32 0, i32 2
  %7 = load ptr, ptr %6, align 8, !tbaa !26
  %8 = load i32, ptr %4, align 4, !tbaa !8
  %9 = sext i32 %8 to i64
  %10 = getelementptr inbounds ptr, ptr %7, i64 %9
  %11 = load ptr, ptr %10, align 8, !tbaa !27
  ret ptr %11
}

; Function Attrs: inlinehint nounwind uwtable
define internal i32 @Vec_PtrSize(ptr noundef %0) #4 {
  %2 = alloca ptr, align 8
  store ptr %0, ptr %2, align 8, !tbaa !14
  %3 = load ptr, ptr %2, align 8, !tbaa !14
  %4 = getelementptr inbounds nuw %struct.Vec_Ptr_t_, ptr %3, i32 0, i32 1
  %5 = load i32, ptr %4, align 4, !tbaa !23
  ret i32 %5
}

; Function Attrs: inlinehint nounwind uwtable
define internal ptr @Vec_PtrArray(ptr noundef %0) #4 {
  %2 = alloca ptr, align 8
  store ptr %0, ptr %2, align 8, !tbaa !14
  %3 = load ptr, ptr %2, align 8, !tbaa !14
  %4 = getelementptr inbounds nuw %struct.Vec_Ptr_t_, ptr %3, i32 0, i32 2
  %5 = load ptr, ptr %4, align 8, !tbaa !26
  ret ptr %5
}

; Function Attrs: inlinehint nounwind uwtable
define internal void @Vec_PtrPush(ptr noundef %0, ptr noundef %1) #4 {
  %3 = alloca ptr, align 8
  %4 = alloca ptr, align 8
  store ptr %0, ptr %3, align 8, !tbaa !14
  store ptr %1, ptr %4, align 8, !tbaa !27
  %5 = load ptr, ptr %3, align 8, !tbaa !14
  %6 = getelementptr inbounds nuw %struct.Vec_Ptr_t_, ptr %5, i32 0, i32 1
  %7 = load i32, ptr %6, align 4, !tbaa !23
  %8 = load ptr, ptr %3, align 8, !tbaa !14
  %9 = getelementptr inbounds nuw %struct.Vec_Ptr_t_, ptr %8, i32 0, i32 0
  %10 = load i32, ptr %9, align 8, !tbaa !25
  %11 = icmp eq i32 %7, %10
  br i1 %11, label %12, label %26

12:                                               ; preds = %2
  %13 = load ptr, ptr %3, align 8, !tbaa !14
  %14 = getelementptr inbounds nuw %struct.Vec_Ptr_t_, ptr %13, i32 0, i32 0
  %15 = load i32, ptr %14, align 8, !tbaa !25
  %16 = icmp slt i32 %15, 16
  br i1 %16, label %17, label %19

17:                                               ; preds = %12
  %18 = load ptr, ptr %3, align 8, !tbaa !14
  call void @Vec_PtrGrow(ptr noundef %18, i32 noundef 16)
  br label %25

19:                                               ; preds = %12
  %20 = load ptr, ptr %3, align 8, !tbaa !14
  %21 = load ptr, ptr %3, align 8, !tbaa !14
  %22 = getelementptr inbounds nuw %struct.Vec_Ptr_t_, ptr %21, i32 0, i32 0
  %23 = load i32, ptr %22, align 8, !tbaa !25
  %24 = mul nsw i32 2, %23
  call void @Vec_PtrGrow(ptr noundef %20, i32 noundef %24)
  br label %25

25:                                               ; preds = %19, %17
  br label %26

26:                                               ; preds = %25, %2
  %27 = load ptr, ptr %4, align 8, !tbaa !27
  %28 = load ptr, ptr %3, align 8, !tbaa !14
  %29 = getelementptr inbounds nuw %struct.Vec_Ptr_t_, ptr %28, i32 0, i32 2
  %30 = load ptr, ptr %29, align 8, !tbaa !26
  %31 = load ptr, ptr %3, align 8, !tbaa !14
  %32 = getelementptr inbounds nuw %struct.Vec_Ptr_t_, ptr %31, i32 0, i32 1
  %33 = load i32, ptr %32, align 4, !tbaa !23
  %34 = add nsw i32 %33, 1
  store i32 %34, ptr %32, align 4, !tbaa !23
  %35 = sext i32 %33 to i64
  %36 = getelementptr inbounds ptr, ptr %30, i64 %35
  store ptr %27, ptr %36, align 8, !tbaa !27
  ret void
}

; Function Attrs: nounwind uwtable
define ptr @Llb_ManGetDummyName(ptr noundef %0, i32 noundef %1, i32 noundef %2) #0 {
  %4 = alloca ptr, align 8
  %5 = alloca i32, align 4
  %6 = alloca i32, align 4
  store ptr %0, ptr %4, align 8, !tbaa !3
  store i32 %1, ptr %5, align 4, !tbaa !8
  store i32 %2, ptr %6, align 4, !tbaa !8
  %7 = load ptr, ptr %4, align 8, !tbaa !3
  %8 = load i32, ptr %6, align 4, !tbaa !8
  %9 = load i32, ptr %5, align 4, !tbaa !8
  %10 = call i32 (ptr, ptr, ...) @sprintf(ptr noundef @Llb_ManGetDummyName.Buffer, ptr noundef @.str, ptr noundef %7, i32 noundef %8, i32 noundef %9) #7
  ret ptr @Llb_ManGetDummyName.Buffer
}

; Function Attrs: inlinehint nounwind uwtable
define internal ptr @Vec_PtrAlloc(i32 noundef %0) #4 {
  %2 = alloca i32, align 4
  %3 = alloca ptr, align 8
  store i32 %0, ptr %2, align 4, !tbaa !8
  call void @llvm.lifetime.start.p0(i64 8, ptr %3) #7
  %4 = call noalias ptr @malloc(i64 noundef 16) #8
  store ptr %4, ptr %3, align 8, !tbaa !14
  %5 = load i32, ptr %2, align 4, !tbaa !8
  %6 = icmp sgt i32 %5, 0
  br i1 %6, label %7, label %11

7:                                                ; preds = %1
  %8 = load i32, ptr %2, align 4, !tbaa !8
  %9 = icmp slt i32 %8, 8
  br i1 %9, label %10, label %11

10:                                               ; preds = %7
  store i32 8, ptr %2, align 4, !tbaa !8
  br label %11

11:                                               ; preds = %10, %7, %1
  %12 = load ptr, ptr %3, align 8, !tbaa !14
  %13 = getelementptr inbounds nuw %struct.Vec_Ptr_t_, ptr %12, i32 0, i32 1
  store i32 0, ptr %13, align 4, !tbaa !23
  %14 = load i32, ptr %2, align 4, !tbaa !8
  %15 = load ptr, ptr %3, align 8, !tbaa !14
  %16 = getelementptr inbounds nuw %struct.Vec_Ptr_t_, ptr %15, i32 0, i32 0
  store i32 %14, ptr %16, align 8, !tbaa !25
  %17 = load ptr, ptr %3, align 8, !tbaa !14
  %18 = getelementptr inbounds nuw %struct.Vec_Ptr_t_, ptr %17, i32 0, i32 0
  %19 = load i32, ptr %18, align 8, !tbaa !25
  %20 = icmp ne i32 %19, 0
  br i1 %20, label %21, label %28

21:                                               ; preds = %11
  %22 = load ptr, ptr %3, align 8, !tbaa !14
  %23 = getelementptr inbounds nuw %struct.Vec_Ptr_t_, ptr %22, i32 0, i32 0
  %24 = load i32, ptr %23, align 8, !tbaa !25
  %25 = sext i32 %24 to i64
  %26 = mul i64 8, %25
  %27 = call noalias ptr @malloc(i64 noundef %26) #8
  br label %29

28:                                               ; preds = %11
  br label %29

29:                                               ; preds = %28, %21
  %30 = phi ptr [ %27, %21 ], [ null, %28 ]
  %31 = load ptr, ptr %3, align 8, !tbaa !14
  %32 = getelementptr inbounds nuw %struct.Vec_Ptr_t_, ptr %31, i32 0, i32 2
  store ptr %30, ptr %32, align 8, !tbaa !26
  %33 = load ptr, ptr %3, align 8, !tbaa !14
  call void @llvm.lifetime.end.p0(i64 8, ptr %3) #7
  ret ptr %33
}

; Function Attrs: inlinehint nounwind uwtable
define internal i32 @Abc_Base10Log(i32 noundef %0) #4 {
  %2 = alloca i32, align 4
  %3 = alloca i32, align 4
  %4 = alloca i32, align 4
  %5 = alloca i32, align 4
  store i32 %0, ptr %3, align 4, !tbaa !8
  call void @llvm.lifetime.start.p0(i64 4, ptr %4) #7
  %6 = load i32, ptr %3, align 4, !tbaa !8
  %7 = icmp ult i32 %6, 2
  br i1 %7, label %8, label %10

8:                                                ; preds = %1
  %9 = load i32, ptr %3, align 4, !tbaa !8
  store i32 %9, ptr %2, align 4
  store i32 1, ptr %5, align 4
  br label %24

10:                                               ; preds = %1
  store i32 0, ptr %4, align 4, !tbaa !8
  %11 = load i32, ptr %3, align 4, !tbaa !8
  %12 = add i32 %11, -1
  store i32 %12, ptr %3, align 4, !tbaa !8
  br label %13

13:                                               ; preds = %17, %10
  %14 = load i32, ptr %3, align 4, !tbaa !8
  %15 = icmp ne i32 %14, 0
  br i1 %15, label %16, label %22

16:                                               ; preds = %13
  br label %17

17:                                               ; preds = %16
  %18 = load i32, ptr %3, align 4, !tbaa !8
  %19 = udiv i32 %18, 10
  store i32 %19, ptr %3, align 4, !tbaa !8
  %20 = load i32, ptr %4, align 4, !tbaa !8
  %21 = add nsw i32 %20, 1
  store i32 %21, ptr %4, align 4, !tbaa !8
  br label %13, !llvm.loop !22

22:                                               ; preds = %13
  %23 = load i32, ptr %4, align 4, !tbaa !8
  store i32 %23, ptr %2, align 4
  store i32 1, ptr %5, align 4
  br label %24

24:                                               ; preds = %22, %8
  call void @llvm.lifetime.end.p0(i64 4, ptr %4) #7
  %25 = load i32, ptr %2, align 4
  ret i32 %25
}

; Function Attrs: nounwind uwtable
define void @Llb_ManDumpReached(ptr noundef %0, ptr noundef %1, ptr noundef %2, ptr noundef %3) #0 {
  %5 = alloca ptr, align 8
  %6 = alloca ptr, align 8
  %7 = alloca ptr, align 8
  %8 = alloca ptr, align 8
  %9 = alloca ptr, align 8
  %10 = alloca ptr, align 8
  %11 = alloca ptr, align 8
  %12 = alloca ptr, align 8
  %13 = alloca i32, align 4
  %14 = alloca i32, align 4
  store ptr %0, ptr %5, align 8, !tbaa !10
  store ptr %1, ptr %6, align 8, !tbaa !12
  store ptr %2, ptr %7, align 8, !tbaa !3
  store ptr %3, ptr %8, align 8, !tbaa !3
  call void @llvm.lifetime.start.p0(i64 8, ptr %9) #7
  call void @llvm.lifetime.start.p0(i64 8, ptr %10) #7
  call void @llvm.lifetime.start.p0(i64 8, ptr %11) #7
  call void @llvm.lifetime.start.p0(i64 8, ptr %12) #7
  call void @llvm.lifetime.start.p0(i64 4, ptr %13) #7
  call void @llvm.lifetime.start.p0(i64 4, ptr %14) #7
  %15 = load ptr, ptr %5, align 8, !tbaa !10
  %16 = call i32 @Cudd_ReduceHeap(ptr noundef %15, i32 noundef 6, i32 noundef 1)
  %17 = load ptr, ptr %5, align 8, !tbaa !10
  %18 = call i32 @Cudd_ReadSize(ptr noundef %17)
  %19 = call i32 @Abc_Base10Log(i32 noundef %18)
  store i32 %19, ptr %14, align 4, !tbaa !8
  %20 = load ptr, ptr %5, align 8, !tbaa !10
  %21 = call i32 @Cudd_ReadSize(ptr noundef %20)
  %22 = call ptr @Vec_PtrAlloc(i32 noundef %21)
  store ptr %22, ptr %10, align 8, !tbaa !14
  store i32 0, ptr %13, align 4, !tbaa !8
  br label %23

23:                                               ; preds = %35, %4
  %24 = load i32, ptr %13, align 4, !tbaa !8
  %25 = load ptr, ptr %5, align 8, !tbaa !10
  %26 = call i32 @Cudd_ReadSize(ptr noundef %25)
  %27 = icmp slt i32 %24, %26
  br i1 %27, label %28, label %38

28:                                               ; preds = %23
  %29 = load i32, ptr %13, align 4, !tbaa !8
  %30 = load i32, ptr %14, align 4, !tbaa !8
  %31 = call ptr @Llb_ManGetDummyName(ptr noundef @.str.1, i32 noundef %29, i32 noundef %30)
  store ptr %31, ptr %12, align 8, !tbaa !3
  %32 = load ptr, ptr %10, align 8, !tbaa !14
  %33 = load ptr, ptr %12, align 8, !tbaa !3
  %34 = call ptr @Extra_UtilStrsav(ptr noundef %33)
  call void @Vec_PtrPush(ptr noundef %32, ptr noundef %34)
  br label %35

35:                                               ; preds = %28
  %36 = load i32, ptr %13, align 4, !tbaa !8
  %37 = add nsw i32 %36, 1
  store i32 %37, ptr %13, align 4, !tbaa !8
  br label %23, !llvm.loop !16

38:                                               ; preds = %23
  %39 = call ptr @Vec_PtrAlloc(i32 noundef 1)
  store ptr %39, ptr %11, align 8, !tbaa !14
  %40 = load ptr, ptr %11, align 8, !tbaa !14
  %41 = call ptr @Extra_UtilStrsav(ptr noundef @.str.2)
  call void @Vec_PtrPush(ptr noundef %40, ptr noundef %41)
  %42 = load ptr, ptr %8, align 8, !tbaa !3
  %43 = call noalias ptr @fopen(ptr noundef %42, ptr noundef @.str.3)
  store ptr %43, ptr %9, align 8, !tbaa !18
  %44 = load ptr, ptr %5, align 8, !tbaa !10
  %45 = load ptr, ptr %10, align 8, !tbaa !14
  %46 = call ptr @Vec_PtrArray(ptr noundef %45)
  %47 = load ptr, ptr %11, align 8, !tbaa !14
  %48 = call ptr @Vec_PtrArray(ptr noundef %47)
  %49 = load ptr, ptr %7, align 8, !tbaa !3
  %50 = load ptr, ptr %9, align 8, !tbaa !18
  %51 = call i32 @Cudd_DumpBlif(ptr noundef %44, i32 noundef 1, ptr noundef %6, ptr noundef %46, ptr noundef %48, ptr noundef %49, ptr noundef %50, i32 noundef 0)
  %52 = load ptr, ptr %9, align 8, !tbaa !18
  %53 = call i32 @fclose(ptr noundef %52)
  store i32 0, ptr %13, align 4, !tbaa !8
  br label %54

54:                                               ; preds = %72, %38
  %55 = load i32, ptr %13, align 4, !tbaa !8
  %56 = load ptr, ptr %10, align 8, !tbaa !14
  %57 = call i32 @Vec_PtrSize(ptr noundef %56)
  %58 = icmp slt i32 %55, %57
  br i1 %58, label %59, label %63

59:                                               ; preds = %54
  %60 = load ptr, ptr %10, align 8, !tbaa !14
  %61 = load i32, ptr %13, align 4, !tbaa !8
  %62 = call ptr @Vec_PtrEntry(ptr noundef %60, i32 noundef %61)
  store ptr %62, ptr %12, align 8, !tbaa !3
  br label %63

63:                                               ; preds = %59, %54
  %64 = phi i1 [ false, %54 ], [ true, %59 ]
  br i1 %64, label %65, label %75

65:                                               ; preds = %63
  %66 = load ptr, ptr %12, align 8, !tbaa !3
  %67 = icmp ne ptr %66, null
  br i1 %67, label %68, label %70

68:                                               ; preds = %65
  %69 = load ptr, ptr %12, align 8, !tbaa !3
  call void @free(ptr noundef %69) #7
  store ptr null, ptr %12, align 8, !tbaa !3
  br label %71

70:                                               ; preds = %65
  br label %71

71:                                               ; preds = %70, %68
  br label %72

72:                                               ; preds = %71
  %73 = load i32, ptr %13, align 4, !tbaa !8
  %74 = add nsw i32 %73, 1
  store i32 %74, ptr %13, align 4, !tbaa !8
  br label %54, !llvm.loop !20

75:                                               ; preds = %63
  store i32 0, ptr %13, align 4, !tbaa !8
  br label %76

76:                                               ; preds = %94, %75
  %77 = load i32, ptr %13, align 4, !tbaa !8
  %78 = load ptr, ptr %11, align 8, !tbaa !14
  %79 = call i32 @Vec_PtrSize(ptr noundef %78)
  %80 = icmp slt i32 %77, %79
  br i1 %80, label %81, label %85

81:                                               ; preds = %76
  %82 = load ptr, ptr %11, align 8, !tbaa !14
  %83 = load i32, ptr %13, align 4, !tbaa !8
  %84 = call ptr @Vec_PtrEntry(ptr noundef %82, i32 noundef %83)
  store ptr %84, ptr %12, align 8, !tbaa !3
  br label %85

85:                                               ; preds = %81, %76
  %86 = phi i1 [ false, %76 ], [ true, %81 ]
  br i1 %86, label %87, label %97

87:                                               ; preds = %85
  %88 = load ptr, ptr %12, align 8, !tbaa !3
  %89 = icmp ne ptr %88, null
  br i1 %89, label %90, label %92

90:                                               ; preds = %87
  %91 = load ptr, ptr %12, align 8, !tbaa !3
  call void @free(ptr noundef %91) #7
  store ptr null, ptr %12, align 8, !tbaa !3
  br label %93

92:                                               ; preds = %87
  br label %93

93:                                               ; preds = %92, %90
  br label %94

94:                                               ; preds = %93
  %95 = load i32, ptr %13, align 4, !tbaa !8
  %96 = add nsw i32 %95, 1
  store i32 %96, ptr %13, align 4, !tbaa !8
  br label %76, !llvm.loop !21

97:                                               ; preds = %85
  %98 = load ptr, ptr %10, align 8, !tbaa !14
  call void @Vec_PtrFree(ptr noundef %98)
  %99 = load ptr, ptr %11, align 8, !tbaa !14
  call void @Vec_PtrFree(ptr noundef %99)
  call void @llvm.lifetime.end.p0(i64 4, ptr %14) #7
  call void @llvm.lifetime.end.p0(i64 4, ptr %13) #7
  call void @llvm.lifetime.end.p0(i64 8, ptr %12) #7
  call void @llvm.lifetime.end.p0(i64 8, ptr %11) #7
  call void @llvm.lifetime.end.p0(i64 8, ptr %10) #7
  call void @llvm.lifetime.end.p0(i64 8, ptr %9) #7
  ret void
}