; Function Attrs: nounwind uwtable
define void @Llb_ManDumpReached(ptr noundef %0, ptr noundef %1, ptr noundef %2, ptr noundef readonly captures(none) %3) local_unnamed_addr #2 {
  %5 = alloca ptr, align 8
  store ptr %1, ptr %5, align 8, !tbaa !3
  %6 = tail call i32 @Cudd_ReduceHeap(ptr noundef %0, i32 noundef 6, i32 noundef 1) #7
  %7 = tail call i32 @Cudd_ReadSize(ptr noundef %0) #7
  %8 = icmp ult i32 %7, 2
  br i1 %8, label %Abc_Base10Log.exit, label %.lr.ph.preheader.i

.lr.ph.preheader.i:                               ; preds = %4
  %9 = add i32 %7, -1
  br label %.lr.ph.i

.lr.ph.i:                                         ; preds = %.lr.ph.i, %.lr.ph.preheader.i
  %.013.i = phi i32 [ %11, %.lr.ph.i ], [ 0, %.lr.ph.preheader.i ]
  %.0812.i = phi i32 [ %10, %.lr.ph.i ], [ %9, %.lr.ph.preheader.i ]
  %10 = udiv i32 %.0812.i, 10
  %11 = add nuw nsw i32 %.013.i, 1
  %.not.i = icmp ult i32 %.0812.i, 10
  br i1 %.not.i, label %Abc_Base10Log.exit, label %.lr.ph.i, !llvm.loop !8

Abc_Base10Log.exit:                               ; preds = %.lr.ph.i, %4
  %.09.i = phi i32 [ %7, %4 ], [ %11, %.lr.ph.i ]
  %12 = tail call i32 @Cudd_ReadSize(ptr noundef %0) #7
  %13 = tail call noalias dereferenceable_or_null(16) ptr @malloc(i64 noundef 16) #8
  %14 = add i32 %12, -1
  %or.cond.i = icmp ult i32 %14, 7
  %spec.store.select.i = select i1 %or.cond.i, i32 8, i32 %12
  %15 = getelementptr inbounds nuw i8, ptr %13, i64 4
  store i32 0, ptr %15, align 4, !tbaa !10
  %.not.i43 = icmp eq i32 %spec.store.select.i, 0
  br i1 %.not.i43, label %Vec_PtrAlloc.exit, label %16

16:                                               ; preds = %Abc_Base10Log.exit
  %17 = sext i32 %spec.store.select.i to i64
  %18 = shl nsw i64 %17, 3
  %19 = tail call noalias ptr @malloc(i64 noundef %18) #8
  br label %Vec_PtrAlloc.exit

Vec_PtrAlloc.exit:                                ; preds = %Abc_Base10Log.exit, %16
  %20 = phi ptr [ %19, %16 ], [ null, %Abc_Base10Log.exit ]
  %21 = getelementptr inbounds nuw i8, ptr %13, i64 8
  store ptr %20, ptr %21, align 8, !tbaa !13
  %22 = tail call i32 @Cudd_ReadSize(ptr noundef %0) #7
  %23 = icmp sgt i32 %22, 0
  br i1 %23, label %.lr.ph, label %Vec_PtrPush.exit50

.lr.ph:                                           ; preds = %Vec_PtrAlloc.exit, %Vec_PtrPush.exit
  %24 = phi i32 [ %49, %Vec_PtrPush.exit ], [ %spec.store.select.i, %Vec_PtrAlloc.exit ]
  %25 = phi i32 [ %51, %Vec_PtrPush.exit ], [ 0, %Vec_PtrAlloc.exit ]
  %.054 = phi i32 [ %54, %Vec_PtrPush.exit ], [ 0, %Vec_PtrAlloc.exit ]
  %26 = tail call i32 (ptr, ptr, ...) @sprintf(ptr noundef nonnull dereferenceable(1) @Llb_ManGetDummyName.Buffer, ptr noundef nonnull dereferenceable(1) @.str, ptr noundef nonnull @.str.1, i32 noundef %.09.i, i32 noundef %.054) #7
  %27 = tail call ptr @Extra_UtilStrsav(ptr noundef nonnull @Llb_ManGetDummyName.Buffer) #7
  %28 = icmp eq i32 %25, %24
  br i1 %28, label %29, label %.Vec_PtrGrow.exit11_crit_edge.i

.Vec_PtrGrow.exit11_crit_edge.i:                  ; preds = %.lr.ph
  %.pre.i = load ptr, ptr %21, align 8, !tbaa !13
  br label %Vec_PtrPush.exit

29:                                               ; preds = %.lr.ph
  %30 = icmp slt i32 %24, 16
  br i1 %30, label %31, label %38

31:                                               ; preds = %29
  %32 = load ptr, ptr %21, align 8, !tbaa !13
  %.not9.i.i = icmp eq ptr %32, null
  br i1 %.not9.i.i, label %35, label %33

33:                                               ; preds = %31
  %34 = tail call dereferenceable_or_null(128) ptr @realloc(ptr noundef nonnull %32, i64 noundef 128) #9
  br label %Vec_PtrGrow.exit.i

35:                                               ; preds = %31
  %36 = tail call noalias dereferenceable_or_null(128) ptr @malloc(i64 noundef 128) #8
  br label %Vec_PtrGrow.exit.i

Vec_PtrGrow.exit.i:                               ; preds = %35, %33
  %37 = phi ptr [ %34, %33 ], [ %36, %35 ]
  store ptr %37, ptr %21, align 8, !tbaa !13
  store i32 16, ptr %13, align 8, !tbaa !14
  br label %Vec_PtrPush.exit

38:                                               ; preds = %29
  %39 = shl nuw nsw i32 %24, 1
  %40 = load ptr, ptr %21, align 8, !tbaa !13
  %.not9.i10.i = icmp eq ptr %40, null
  %41 = zext nneg i32 %39 to i64
  %42 = shl nuw nsw i64 %41, 3
  br i1 %.not9.i10.i, label %45, label %43

43:                                               ; preds = %38
  %44 = tail call ptr @realloc(ptr noundef nonnull %40, i64 noundef %42) #9
  br label %47

45:                                               ; preds = %38
  %46 = tail call noalias ptr @malloc(i64 noundef %42) #8
  br label %47

47:                                               ; preds = %45, %43
  %48 = phi ptr [ %44, %43 ], [ %46, %45 ]
  store ptr %48, ptr %21, align 8, !tbaa !13
  store i32 %39, ptr %13, align 8, !tbaa !14
  br label %Vec_PtrPush.exit

Vec_PtrPush.exit:                                 ; preds = %.Vec_PtrGrow.exit11_crit_edge.i, %Vec_PtrGrow.exit.i, %47
  %49 = phi i32 [ %24, %.Vec_PtrGrow.exit11_crit_edge.i ], [ %39, %47 ], [ 16, %Vec_PtrGrow.exit.i ]
  %50 = phi ptr [ %.pre.i, %.Vec_PtrGrow.exit11_crit_edge.i ], [ %48, %47 ], [ %37, %Vec_PtrGrow.exit.i ]
  %51 = add nuw nsw i32 %25, 1
  store i32 %51, ptr %15, align 4, !tbaa !10
  %52 = zext nneg i32 %25 to i64
  %53 = getelementptr inbounds nuw ptr, ptr %50, i64 %52
  store ptr %27, ptr %53, align 8, !tbaa !15
  %54 = add nuw nsw i32 %.054, 1
  %55 = tail call i32 @Cudd_ReadSize(ptr noundef %0) #7
  %56 = icmp slt i32 %54, %55
  br i1 %56, label %.lr.ph, label %Vec_PtrPush.exit50, !llvm.loop !16

Vec_PtrPush.exit50:                               ; preds = %Vec_PtrPush.exit, %Vec_PtrAlloc.exit
  %.val39 = phi i32 [ 0, %Vec_PtrAlloc.exit ], [ %51, %Vec_PtrPush.exit ]
  %57 = tail call noalias dereferenceable_or_null(64) ptr @malloc(i64 noundef 64) #8
  %58 = tail call ptr @Extra_UtilStrsav(ptr noundef nonnull @.str.2) #7
  store ptr %58, ptr %57, align 8, !tbaa !15
  %59 = tail call noalias ptr @fopen(ptr noundef %3, ptr noundef nonnull @.str.3)
  %.val = load ptr, ptr %21, align 8, !tbaa !13
  %60 = call i32 @Cudd_DumpBlif(ptr noundef %0, i32 noundef 1, ptr noundef nonnull %5, ptr noundef %.val, ptr noundef nonnull %57, ptr noundef %2, ptr noundef %59, i32 noundef 0) #7
  %61 = call i32 @fclose(ptr noundef %59)
  %62 = icmp sgt i32 %.val39, 0
  br i1 %62, label %.lr.ph56.preheader, label %.critedge.preheader.split

.lr.ph56.preheader:                               ; preds = %Vec_PtrPush.exit50
  %wide.trip.count = zext nneg i32 %.val39 to i64
  br label %.lr.ph56

.lr.ph56:                                         ; preds = %.lr.ph56.preheader, %66
  %indvars.iv = phi i64 [ 0, %.lr.ph56.preheader ], [ %indvars.iv.next, %66 ]
  %63 = getelementptr inbounds nuw ptr, ptr %.val, i64 %indvars.iv
  %64 = load ptr, ptr %63, align 8, !tbaa !15
  %.not37 = icmp eq ptr %64, null
  br i1 %.not37, label %66, label %65

65:                                               ; preds = %.lr.ph56
  call void @free(ptr noundef nonnull %64) #7
  br label %66

66:                                               ; preds = %65, %.lr.ph56
  %indvars.iv.next = add nuw nsw i64 %indvars.iv, 1
  %exitcond.not = icmp eq i64 %indvars.iv.next, %wide.trip.count
  br i1 %exitcond.not, label %.critedge.preheader.split, label %.lr.ph56, !llvm.loop !17

.critedge.preheader.split:                        ; preds = %66, %Vec_PtrPush.exit50
  %67 = load ptr, ptr %57, align 8, !tbaa !15
  %.not = icmp eq ptr %67, null
  br i1 %.not, label %.critedge2, label %68

68:                                               ; preds = %.critedge.preheader.split
  call void @free(ptr noundef nonnull %67) #7
  br label %.critedge2

.critedge2:                                       ; preds = %.critedge.preheader.split, %68
  %.not.i51 = icmp eq ptr %.val, null
  br i1 %.not.i51, label %Vec_PtrFree.exit, label %69

69:                                               ; preds = %.critedge2
  call void @free(ptr noundef nonnull %.val) #7
  br label %Vec_PtrFree.exit

Vec_PtrFree.exit:                                 ; preds = %.critedge2, %69
  call void @free(ptr noundef nonnull %13) #7
  call void @free(ptr noundef nonnull %57) #7
  ret void
}